target datalayout = "e-m:e-p270:32:32-p271:32:32-p272:64:64-i64:64-i128:128-f80:128-n8:16:32:64-S128"
target triple = "x86_64-pc-linux-gnu"

%"class.std::ios_base::Init" = type { i8 }
%"struct.Imf_3_4::OutputPartData" = type { %"class.Imf_3_4::Header", i64, i64, i32, i32, i8, ptr }
%"class.Imf_3_4::Header" = type <{ %"class.std::map", i8, [7 x i8] }>
%"class.std::map" = type { %"class.std::_Rb_tree" }
%"class.std::_Rb_tree" = type { %"struct.std::_Rb_tree<Imf_3_4::Name, std::pair<const Imf_3_4::Name, Imf_3_4::Attribute *>, std::_Select1st<std::pair<const Imf_3_4::Name, Imf_3_4::Attribute *>>, std::less<Imf_3_4::Name>>::_Rb_tree_impl" }
%"struct.std::_Rb_tree<Imf_3_4::Name, std::pair<const Imf_3_4::Name, Imf_3_4::Attribute *>, std::_Select1st<std::pair<const Imf_3_4::Name, Imf_3_4::Attribute *>>, std::less<Imf_3_4::Name>>::_Rb_tree_impl" = type { [8 x i8], %"struct.std::_Rb_tree_header" }
%"struct.std::_Rb_tree_header" = type { %"struct.std::_Rb_tree_node_base", i64 }
%"struct.std::_Rb_tree_node_base" = type { i32, ptr, ptr, ptr }

@_ZStL8__ioinit = internal global %"class.std::ios_base::Init" zeroinitializer, align 1
@__dso_handle = external hidden global i8
@llvm.global_ctors = appending global [1 x { i32, ptr, ptr }] [{ i32, ptr, ptr } { i32 65535, ptr @_GLOBAL__sub_I_ImfOutputPartData.cpp, ptr null }]

@_ZN7Imf_3_414OutputPartDataC1EPNS_17OutputStreamMutexERKNS_6HeaderEiib = hidden unnamed_addr alias void (ptr, ptr, ptr, i32, i32, i1), ptr @_ZN7Imf_3_414OutputPartDataC2EPNS_17OutputStreamMutexERKNS_6HeaderEiib

; Function Attrs: uwtable
define internal void @__cxx_global_var_init() #0 section ".text.startup" {
  call void @_ZNSt8ios_base4InitC1Ev(ptr noundef nonnull align 1 dereferenceable(1) @_ZStL8__ioinit)
  %1 = call i32 @__cxa_atexit(ptr @_ZNSt8ios_base4InitD1Ev, ptr @_ZStL8__ioinit, ptr @__dso_handle) #3
  ret void
}

declare void @_ZNSt8ios_base4InitC1Ev(ptr noundef nonnull align 1 dereferenceable(1)) unnamed_addr #1

; Function Attrs: nounwind
declare void @_ZNSt8ios_base4InitD1Ev(ptr noundef nonnull align 1 dereferenceable(1)) unnamed_addr #2

; Function Attrs: nounwind
declare i32 @__cxa_atexit(ptr, ptr, ptr) #3

; Function Attrs: mustprogress uwtable
define hidden void @_ZN7Imf_3_414OutputPartDataC2EPNS_17OutputStreamMutexERKNS_6HeaderEiib(ptr noundef nonnull align 8 dereferenceable(96) %0, ptr noundef %1, ptr noundef nonnull align 8 dereferenceable(49) %2, i32 noundef %3, i32 noundef %4, i1 noundef zeroext %5) unnamed_addr #4 align 2 {
  %7 = alloca ptr, align 8
  %8 = alloca ptr, align 8
  %9 = alloca ptr, align 8
  %10 = alloca i32, align 4
  %11 = alloca i32, align 4
  %12 = alloca i8, align 1
  store ptr %0, ptr %7, align 8, !tbaa !3
  store ptr %1, ptr %8, align 8, !tbaa !8
  store ptr %2, ptr %9, align 8, !tbaa !10
  store i32 %3, ptr %10, align 4, !tbaa !12
  store i32 %4, ptr %11, align 4, !tbaa !12
  %13 = zext i1 %5 to i8
  store i8 %13, ptr %12, align 1, !tbaa !14
  %14 = load ptr, ptr %7, align 8
  %15 = getelementptr inbounds nuw %"struct.Imf_3_4::OutputPartData", ptr %14, i32 0, i32 0
  %16 = load ptr, ptr %9, align 8, !tbaa !10
  call void @_ZN7Imf_3_46HeaderC1ERKS0_(ptr noundef nonnull align 8 dereferenceable(49) %15, ptr noundef nonnull align 8 dereferenceable(49) %16)
  %17 = getelementptr inbounds nuw %"struct.Imf_3_4::OutputPartData", ptr %14, i32 0, i32 3
  %18 = load i32, ptr %11, align 4, !tbaa !12
  store i32 %18, ptr %17, align 8, !tbaa !16
  %19 = getelementptr inbounds nuw %"struct.Imf_3_4::OutputPartData", ptr %14, i32 0, i32 4
  %20 = load i32, ptr %10, align 4, !tbaa !12
  store i32 %20, ptr %19, align 4, !tbaa !29
  %21 = getelementptr inbounds nuw %"struct.Imf_3_4::OutputPartData", ptr %14, i32 0, i32 5
  %22 = load i8, ptr %12, align 1, !tbaa !14, !range !30, !noundef !31
  %23 = trunc i8 %22 to i1
  %24 = zext i1 %23 to i8
  store i8 %24, ptr %21, align 8, !tbaa !32
  %25 = getelementptr inbounds nuw %"struct.Imf_3_4::OutputPartData", ptr %14, i32 0, i32 6
  %26 = load ptr, ptr %8, align 8, !tbaa !8
  store ptr %26, ptr %25, align 8, !tbaa !33
  ret void
}

declare void @_ZN7Imf_3_46HeaderC1ERKS0_(ptr noundef nonnull align 8 dereferenceable(49), ptr noundef nonnull align 8 dereferenceable(49)) unnamed_addr #1

; Function Attrs: uwtable
define internal void @_GLOBAL__sub_I_ImfOutputPartData.cpp() #0 section ".text.startup" {
  call void @__cxx_global_var_init()
  ret void
}


!llvm.module.flags = !{!0, !1, !2}

!0 = !{i32 1, !"wchar_size", i32 4}
!1 = !{i32 8, !"PIC Level", i32 2}
!2 = !{i32 7, !"uwtable", i32 2}
!3 = !{!4, !4, i64 0}
!4 = !{!"p1 _ZTSN7Imf_3_414OutputPartDataE", !5, i64 0}
!5 = !{!"any pointer", !6, i64 0}
!6 = !{!"omnipotent char", !7, i64 0}
!7 = !{!"Simple C++ TBAA"}
!8 = !{!9, !9, i64 0}
!9 = !{!"p1 _ZTSN7Imf_3_417OutputStreamMutexE", !5, i64 0}
!10 = !{!11, !11, i64 0}
!11 = !{!"p1 _ZTSN7Imf_3_46HeaderE", !5, i64 0}
!12 = !{!13, !13, i64 0}
!13 = !{!"int", !6, i64 0}
!14 = !{!15, !15, i64 0}
!15 = !{!"bool", !6, i64 0}
!16 = !{!17, !13, i64 72}
!17 = !{!"_ZTSN7Imf_3_414OutputPartDataE", !18, i64 0, !28, i64 56, !28, i64 64, !13, i64 72, !13, i64 76, !15, i64 80, !9, i64 88}
!18 = !{!"_ZTSN7Imf_3_46HeaderE", !19, i64 0, !15, i64 48}
!19 = !{!"_ZTSSt3mapIN7Imf_3_44NameEPNS0_9AttributeESt4lessIS1_ESaISt4pairIKS1_S3_EEE", !20, i64 0}
!20 = !{!"_ZTSSt8_Rb_treeIN7Imf_3_44NameESt4pairIKS1_PNS0_9AttributeEESt10_Select1stIS6_ESt4lessIS1_ESaIS6_EE", !21, i64 0}
!21 = !{!"_ZTSNSt8_Rb_treeIN7Imf_3_44NameESt4pairIKS1_PNS0_9AttributeEESt10_Select1stIS6_ESt4lessIS1_ESaIS6_EE13_Rb_tree_implISA_Lb1EEE", !22, i64 0, !24, i64 8}
!22 = !{!"_ZTSSt20_Rb_tree_key_compareISt4lessIN7Imf_3_44NameEEE", !23, i64 0}
!23 = !{!"_ZTSSt4lessIN7Imf_3_44NameEE"}
!24 = !{!"_ZTSSt15_Rb_tree_header", !25, i64 0, !28, i64 32}
!25 = !{!"_ZTSSt18_Rb_tree_node_base", !26, i64 0, !27, i64 8, !27, i64 16, !27, i64 24}
!26 = !{!"_ZTSSt14_Rb_tree_color", !6, i64 0}
!27 = !{!"p1 _ZTSSt18_Rb_tree_node_base", !5, i64 0}
!28 = !{!"long", !6, i64 0}
!29 = !{!17, !13, i64 76}
!30 = !{i8 0, i8 2}
!31 = !{}
!32 = !{!17, !15, i64 80}
!33 = !{!17, !9, i64 88}
