; ModuleID = 'bench/openexr/original/ImfOutputPartData.ll'
source_filename = "bench/openexr/original/ImfOutputPartData.ll"
target datalayout = "e-m:e-p270:32:32-p271:32:32-p272:64:64-i64:64-i128:128-f80:128-n8:16:32:64-S128"
target triple = "x86_64-pc-linux-gnu"

%"class.std::ios_base::Init" = type { i8 }

@_ZStL8__ioinit = internal global %"class.std::ios_base::Init" zeroinitializer, align 1
@__dso_handle = external hidden global i8
@llvm.global_ctors = appending global [1 x { i32, ptr, ptr }] [{ i32, ptr, ptr } { i32 65535, ptr @_GLOBAL__sub_I_ImfOutputPartData.cpp, ptr null }]

@_ZN7Imf_3_414OutputPartDataC1EPNS_17OutputStreamMutexERKNS_6HeaderEiib = hidden unnamed_addr alias void (ptr, ptr, ptr, i32, i32, i1), ptr @_ZN7Imf_3_414OutputPartDataC2EPNS_17OutputStreamMutexERKNS_6HeaderEiib

declare void @_ZNSt8ios_base4InitC1Ev(ptr noundef nonnull align 1 dereferenceable(1)) unnamed_addr #0

; Function Attrs: nounwind
declare void @_ZNSt8ios_base4InitD1Ev(ptr noundef nonnull align 1 dereferenceable(1)) unnamed_addr #1

; Function Attrs: nofree nounwind
declare i32 @__cxa_atexit(ptr, ptr, ptr) local_unnamed_addr #2

; Function Attrs: mustprogress uwtable
define hidden void @_ZN7Imf_3_414OutputPartDataC2EPNS_17OutputStreamMutexERKNS_6HeaderEiib(ptr noundef nonnull align 8 dereferenceable(96) %0, ptr noundef %1, ptr noundef nonnull align 8 dereferenceable(49) %2, i32 noundef %3, i32 noundef %4, i1 noundef zeroext %5) unnamed_addr #3 align 2 {
  %7 = zext i1 %5 to i8
  tail call void @_ZN7Imf_3_46HeaderC1ERKS0_(ptr noundef nonnull align 8 dereferenceable(49) %0, ptr noundef nonnull align 8 dereferenceable(49) %2)
  %8 = getelementptr inbounds nuw i8, ptr %0, i64 72
  store i32 %4, ptr %8, align 8, !tbaa !3
  %9 = getelementptr inbounds nuw i8, ptr %0, i64 76
  store i32 %3, ptr %9, align 4, !tbaa !22
  %10 = getelementptr inbounds nuw i8, ptr %0, i64 80
  store i8 %7, ptr %10, align 8, !tbaa !23
  %11 = getelementptr inbounds nuw i8, ptr %0, i64 88
  store ptr %1, ptr %11, align 8, !tbaa !24
  ret void
}

declare void @_ZN7Imf_3_46HeaderC1ERKS0_(ptr noundef nonnull align 8 dereferenceable(49), ptr noundef nonnull align 8 dereferenceable(49)) unnamed_addr #0

; Function Attrs: uwtable
define internal void @_GLOBAL__sub_I_ImfOutputPartData.cpp() #4 section ".text.startup" {
  tail call void @_ZNSt8ios_base4InitC1Ev(ptr noundef nonnull align 1 dereferenceable(1) @_ZStL8__ioinit)
  %1 = tail call i32 @__cxa_atexit(ptr nonnull @_ZNSt8ios_base4InitD1Ev, ptr nonnull @_ZStL8__ioinit, ptr nonnull @__dso_handle) #5
  ret void
}


!llvm.module.flags = !{!0, !1, !2}

!0 = !{i32 1, !"wchar_size", i32 4}
!1 = !{i32 8, !"PIC Level", i32 2}
!2 = !{i32 7, !"uwtable", i32 2}
!3 = !{!4, !20, i64 72}
!4 = !{!"_ZTSN7Imf_3_414OutputPartDataE", !5, i64 0, !18, i64 56, !18, i64 64, !20, i64 72, !20, i64 76, !19, i64 80, !21, i64 88}
!5 = !{!"_ZTSN7Imf_3_46HeaderE", !6, i64 0, !19, i64 48}
!6 = !{!"_ZTSSt3mapIN7Imf_3_44NameEPNS0_9AttributeESt4lessIS1_ESaISt4pairIKS1_S3_EEE", !7, i64 0}
!7 = !{!"_ZTSSt8_Rb_treeIN7Imf_3_44NameESt4pairIKS1_PNS0_9AttributeEESt10_Select1stIS6_ESt4lessIS1_ESaIS6_EE", !8, i64 0}
!8 = !{!"_ZTSNSt8_Rb_treeIN7Imf_3_44NameESt4pairIKS1_PNS0_9AttributeEESt10_Select1stIS6_ESt4lessIS1_ESaIS6_EE13_Rb_tree_implISA_Lb1EEE", !9, i64 0, !11, i64 8}
!9 = !{!"_ZTSSt20_Rb_tree_key_compareISt4lessIN7Imf_3_44NameEEE", !10, i64 0}
!10 = !{!"_ZTSSt4lessIN7Imf_3_44NameEE"}
!11 = !{!"_ZTSSt15_Rb_tree_header", !12, i64 0, !18, i64 32}
!12 = !{!"_ZTSSt18_Rb_tree_node_base", !13, i64 0, !16, i64 8, !16, i64 16, !16, i64 24}
!13 = !{!"_ZTSSt14_Rb_tree_color", !14, i64 0}
!14 = !{!"omnipotent char", !15, i64 0}
!15 = !{!"Simple C++ TBAA"}
!16 = !{!"p1 _ZTSSt18_Rb_tree_node_base", !17, i64 0}
!17 = !{!"any pointer", !14, i64 0}
!18 = !{!"long", !14, i64 0}
!19 = !{!"bool", !14, i64 0}
!20 = !{!"int", !14, i64 0}
!21 = !{!"p1 _ZTSN7Imf_3_417OutputStreamMutexE", !17, i64 0}
!22 = !{!4, !20, i64 76}
!23 = !{!4, !19, i64 80}
!24 = !{!4, !21, i64 88}
